target datalayout = "e-m:e-p270:32:32-p271:32:32-p272:64:64-i64:64-i128:128-f80:128-n8:16:32:64-S128"
target triple = "x86_64-pc-linux-gnu"

@.str = private unnamed_addr constant [104 x i8] c"generated/home/dtcxzyw/WorkSpace/Projects/compilers/llvm-opt-benchmark/bench/hdf5/hdf5/src/H5VLnative.c\00", align 1
@H5E_VOL_g = external global i64, align 8
@__func__.H5VL_native_get_file_addr_len = private unnamed_addr constant [30 x i8] c"H5VL_native_get_file_addr_len\00", align 1
@H5E_BADTYPE_g = external global i64, align 8
@.str.3 = private unnamed_addr constant [28 x i8] c"invalid location identifier\00", align 1
@H5E_CANTGET_g = external global i64, align 8
@.str.4 = private unnamed_addr constant [30 x i8] c"can't get file address length\00", align 1
@__func__.H5VL__native_get_file_addr_len = private unnamed_addr constant [31 x i8] c"H5VL__native_get_file_addr_len\00", align 1
@.str.5 = private unnamed_addr constant [34 x i8] c"couldn't get file from VOL object\00", align 1

; Function Attrs: nounwind uwtable
define i32 @H5VL__native_get_file_addr_len(ptr noundef %0, i32 noundef %1, ptr noundef %2) #0 {
  %4 = alloca ptr, align 8
  %5 = alloca i32, align 4
  %6 = alloca ptr, align 8
  %7 = alloca ptr, align 8
  %8 = alloca i32, align 4
  %9 = alloca i8, align 1
  store ptr %0, ptr %4, align 8, !tbaa !16
  store i32 %1, ptr %5, align 4, !tbaa !3
  store ptr %2, ptr %6, align 8, !tbaa !21
  call void @llvm.lifetime.start.p0(i64 8, ptr %7) #5
  store ptr null, ptr %7, align 8, !tbaa !23
  call void @llvm.lifetime.start.p0(i64 4, ptr %8) #5
  store i32 0, ptr %8, align 4, !tbaa !3
  call void @llvm.lifetime.start.p0(i64 1, ptr %9) #5
  store i8 0, ptr %9, align 1, !tbaa !7
  %10 = load ptr, ptr %4, align 8, !tbaa !16
  %11 = load i32, ptr %5, align 4, !tbaa !3
  %12 = call i32 @H5VL_native_get_file_struct(ptr noundef %10, i32 noundef %11, ptr noundef %7)
  %13 = icmp slt i32 %12, 0
  br i1 %13, label %14, label %33

14:                                               ; preds = %3
  br label %15

15:                                               ; preds = %14
  br label %16

16:                                               ; preds = %15
  br label %17

17:                                               ; preds = %16
  %18 = load i64, ptr @H5E_VOL_g, align 8, !tbaa !12
  %19 = load i64, ptr @H5E_CANTGET_g, align 8, !tbaa !12
  %20 = call i32 (ptr, ptr, i32, i64, i64, ptr, ...) @H5E_printf_stack(ptr noundef @.str, ptr noundef @__func__.H5VL__native_get_file_addr_len, i32 noundef 355, i64 noundef %18, i64 noundef %19, ptr noundef @.str.5)
  br label %21

21:                                               ; preds = %17
  br label %22

22:                                               ; preds = %21
  store i8 1, ptr %9, align 1, !tbaa !7
  %23 = load i8, ptr %9, align 1, !tbaa !7, !range !14, !noundef !15
  %24 = trunc i8 %23 to i1
  %25 = zext i1 %24 to i8
  store i8 %25, ptr %9, align 1, !tbaa !7
  br label %26

26:                                               ; preds = %22
  br label %27

27:                                               ; preds = %26
  br label %28

28:                                               ; preds = %27
  store i32 -1, ptr %8, align 4, !tbaa !3
  br label %38

29:                                               ; No predecessors!
  br label %30

30:                                               ; preds = %29
  br label %31

31:                                               ; preds = %30
  br label %32

32:                                               ; preds = %31
  br label %33

33:                                               ; preds = %32, %3
  %34 = load ptr, ptr %7, align 8, !tbaa !23
  %35 = call zeroext i8 @H5F_sizeof_addr(ptr noundef %34)
  %36 = zext i8 %35 to i64
  %37 = load ptr, ptr %6, align 8, !tbaa !21
  store i64 %36, ptr %37, align 8, !tbaa !12
  br label %38

38:                                               ; preds = %33, %28
  %39 = load i32, ptr %8, align 4, !tbaa !3
  call void @llvm.lifetime.end.p0(i64 1, ptr %9) #5
  call void @llvm.lifetime.end.p0(i64 4, ptr %8) #5
  call void @llvm.lifetime.end.p0(i64 8, ptr %7) #5
  ret i32 %39
}

; Function Attrs: nounwind uwtable
define i32 @H5VL_native_get_file_addr_len(i64 noundef %0, ptr noundef %1) #0 {
  %3 = alloca i64, align 8
  %4 = alloca ptr, align 8
  %5 = alloca i32, align 4
  %6 = alloca ptr, align 8
  %7 = alloca i32, align 4
  %8 = alloca i8, align 1
  store i64 %0, ptr %3, align 8, !tbaa !12
  store ptr %1, ptr %4, align 8, !tbaa !21
  call void @llvm.lifetime.start.p0(i64 4, ptr %5) #5
  store i32 -1, ptr %5, align 4, !tbaa !3
  call void @llvm.lifetime.start.p0(i64 8, ptr %6) #5
  store ptr null, ptr %6, align 8, !tbaa !16
  call void @llvm.lifetime.start.p0(i64 4, ptr %7) #5
  store i32 0, ptr %7, align 4, !tbaa !3
  call void @llvm.lifetime.start.p0(i64 1, ptr %8) #5
  store i8 0, ptr %8, align 1, !tbaa !7
  %9 = load i64, ptr %3, align 8, !tbaa !12
  %10 = call i32 @H5I_get_type(i64 noundef %9)
  store i32 %10, ptr %5, align 4, !tbaa !3
  %11 = icmp slt i32 %10, 0
  br i1 %11, label %12, label %31

12:                                               ; preds = %2
  br label %13

13:                                               ; preds = %12
  br label %14

14:                                               ; preds = %13
  br label %15

15:                                               ; preds = %14
  %16 = load i64, ptr @H5E_VOL_g, align 8, !tbaa !12
  %17 = load i64, ptr @H5E_BADTYPE_g, align 8, !tbaa !12
  %18 = call i32 (ptr, ptr, i32, i64, i64, ptr, ...) @H5E_printf_stack(ptr noundef @.str, ptr noundef @__func__.H5VL_native_get_file_addr_len, i32 noundef 316, i64 noundef %16, i64 noundef %17, ptr noundef @.str.3)
  br label %19

19:                                               ; preds = %15
  br label %20

20:                                               ; preds = %19
  store i8 1, ptr %8, align 1, !tbaa !7
  %21 = load i8, ptr %8, align 1, !tbaa !7, !range !14, !noundef !15
  %22 = trunc i8 %21 to i1
  %23 = zext i1 %22 to i8
  store i8 %23, ptr %8, align 1, !tbaa !7
  br label %24

24:                                               ; preds = %20
  br label %25

25:                                               ; preds = %24
  br label %26

26:                                               ; preds = %25
  store i32 -1, ptr %7, align 4, !tbaa !3
  br label %80

27:                                               ; No predecessors!
  br label %28

28:                                               ; preds = %27
  br label %29

29:                                               ; preds = %28
  br label %30

30:                                               ; preds = %29
  br label %31

31:                                               ; preds = %30, %2
  %32 = load i64, ptr %3, align 8, !tbaa !12
  %33 = call ptr @H5VL_object(i64 noundef %32)
  store ptr %33, ptr %6, align 8, !tbaa !16
  %34 = icmp eq ptr null, %33
  br i1 %34, label %35, label %54

35:                                               ; preds = %31
  br label %36

36:                                               ; preds = %35
  br label %37

37:                                               ; preds = %36
  br label %38

38:                                               ; preds = %37
  %39 = load i64, ptr @H5E_VOL_g, align 8, !tbaa !12
  %40 = load i64, ptr @H5E_BADTYPE_g, align 8, !tbaa !12
  %41 = call i32 (ptr, ptr, i32, i64, i64, ptr, ...) @H5E_printf_stack(ptr noundef @.str, ptr noundef @__func__.H5VL_native_get_file_addr_len, i32 noundef 320, i64 noundef %39, i64 noundef %40, ptr noundef @.str.3)
  br label %42

42:                                               ; preds = %38
  br label %43

43:                                               ; preds = %42
  store i8 1, ptr %8, align 1, !tbaa !7
  %44 = load i8, ptr %8, align 1, !tbaa !7, !range !14, !noundef !15
  %45 = trunc i8 %44 to i1
  %46 = zext i1 %45 to i8
  store i8 %46, ptr %8, align 1, !tbaa !7
  br label %47

47:                                               ; preds = %43
  br label %48

48:                                               ; preds = %47
  br label %49

49:                                               ; preds = %48
  store i32 -1, ptr %7, align 4, !tbaa !3
  br label %80

50:                                               ; No predecessors!
  br label %51

51:                                               ; preds = %50
  br label %52

52:                                               ; preds = %51
  br label %53

53:                                               ; preds = %52
  br label %54

54:                                               ; preds = %53, %31
  %55 = load ptr, ptr %6, align 8, !tbaa !16
  %56 = load i32, ptr %5, align 4, !tbaa !3
  %57 = load ptr, ptr %4, align 8, !tbaa !21
  %58 = call i32 @H5VL__native_get_file_addr_len(ptr noundef %55, i32 noundef %56, ptr noundef %57)
  %59 = icmp slt i32 %58, 0
  br i1 %59, label %60, label %79

60:                                               ; preds = %54
  br label %61

61:                                               ; preds = %60
  br label %62

62:                                               ; preds = %61
  br label %63

63:                                               ; preds = %62
  %64 = load i64, ptr @H5E_VOL_g, align 8, !tbaa !12
  %65 = load i64, ptr @H5E_CANTGET_g, align 8, !tbaa !12
  %66 = call i32 (ptr, ptr, i32, i64, i64, ptr, ...) @H5E_printf_stack(ptr noundef @.str, ptr noundef @__func__.H5VL_native_get_file_addr_len, i32 noundef 324, i64 noundef %64, i64 noundef %65, ptr noundef @.str.4)
  br label %67

67:                                               ; preds = %63
  br label %68

68:                                               ; preds = %67
  store i8 1, ptr %8, align 1, !tbaa !7
  %69 = load i8, ptr %8, align 1, !tbaa !7, !range !14, !noundef !15
  %70 = trunc i8 %69 to i1
  %71 = zext i1 %70 to i8
  store i8 %71, ptr %8, align 1, !tbaa !7
  br label %72

72:                                               ; preds = %68
  br label %73

73:                                               ; preds = %72
  br label %74

74:                                               ; preds = %73
  store i32 -1, ptr %7, align 4, !tbaa !3
  br label %80

75:                                               ; No predecessors!
  br label %76

76:                                               ; preds = %75
  br label %77

77:                                               ; preds = %76
  br label %78

78:                                               ; preds = %77
  br label %79

79:                                               ; preds = %78, %54
  br label %80

80:                                               ; preds = %79, %74, %49, %26
  %81 = load i32, ptr %7, align 4, !tbaa !3
  call void @llvm.lifetime.end.p0(i64 1, ptr %8) #5
  call void @llvm.lifetime.end.p0(i64 4, ptr %7) #5
  call void @llvm.lifetime.end.p0(i64 8, ptr %6) #5
  call void @llvm.lifetime.end.p0(i64 4, ptr %5) #5
  ret i32 %81
}