; Function Attrs: nounwind uwtable
define range(i32 -1, 1) i32 @H5VL_native_get_file_addr_len(i64 noundef %0, ptr noundef writeonly captures(none) %1) local_unnamed_addr #0 {
  %3 = alloca ptr, align 8
  %4 = tail call i32 @H5I_get_type(i64 noundef %0) #6
  %5 = icmp slt i32 %4, 0
  br i1 %5, label %6, label %10

6:                                                ; preds = %2
  %7 = load i64, ptr @H5E_VOL_g, align 8, !tbaa !8
  %8 = load i64, ptr @H5E_BADTYPE_g, align 8, !tbaa !8
  %9 = tail call i32 (ptr, ptr, i32, i64, i64, ptr, ...) @H5E_printf_stack(ptr noundef nonnull @.str, ptr noundef nonnull @__func__.H5VL_native_get_file_addr_len, i32 noundef 316, i64 noundef %7, i64 noundef %8, ptr noundef nonnull @.str.3) #6
  br label %30

10:                                               ; preds = %2
  %11 = tail call ptr @H5VL_object(i64 noundef %0) #6
  %12 = icmp eq ptr %11, null
  br i1 %12, label %13, label %17

13:                                               ; preds = %10
  %14 = load i64, ptr @H5E_VOL_g, align 8, !tbaa !8
  %15 = load i64, ptr @H5E_BADTYPE_g, align 8, !tbaa !8
  %16 = tail call i32 (ptr, ptr, i32, i64, i64, ptr, ...) @H5E_printf_stack(ptr noundef nonnull @.str, ptr noundef nonnull @__func__.H5VL_native_get_file_addr_len, i32 noundef 320, i64 noundef %14, i64 noundef %15, ptr noundef nonnull @.str.3) #6
  br label %30

17:                                               ; preds = %10
  call void @llvm.lifetime.start.p0(i64 8, ptr nonnull %3) #6
  %18 = call i32 @H5VL_native_get_file_struct(ptr noundef nonnull %11, i32 noundef %4, ptr noundef nonnull %3)
  %19 = icmp slt i32 %18, 0
  br i1 %19, label %23, label %H5VL__native_get_file_addr_len.exit

H5VL__native_get_file_addr_len.exit:              ; preds = %17
  %20 = load ptr, ptr %3, align 8, !tbaa !12
  %21 = tail call zeroext i8 @H5F_sizeof_addr(ptr noundef %20) #6
  %22 = zext i8 %21 to i64
  store i64 %22, ptr %1, align 8, !tbaa !8
  call void @llvm.lifetime.end.p0(i64 8, ptr nonnull %3) #6
  br label %30

23:                                               ; preds = %17
  %24 = load i64, ptr @H5E_VOL_g, align 8, !tbaa !8
  %25 = load i64, ptr @H5E_CANTGET_g, align 8, !tbaa !8
  %26 = tail call i32 (ptr, ptr, i32, i64, i64, ptr, ...) @H5E_printf_stack(ptr noundef nonnull @.str, ptr noundef nonnull @__func__.H5VL__native_get_file_addr_len, i32 noundef 355, i64 noundef %24, i64 noundef %25, ptr noundef nonnull @.str.5) #6
  call void @llvm.lifetime.end.p0(i64 8, ptr nonnull %3) #6
  %27 = load i64, ptr @H5E_VOL_g, align 8, !tbaa !8
  %28 = load i64, ptr @H5E_CANTGET_g, align 8, !tbaa !8
  %29 = tail call i32 (ptr, ptr, i32, i64, i64, ptr, ...) @H5E_printf_stack(ptr noundef nonnull @.str, ptr noundef nonnull @__func__.H5VL_native_get_file_addr_len, i32 noundef 324, i64 noundef %27, i64 noundef %28, ptr noundef nonnull @.str.4) #6
  br label %30

30:                                               ; preds = %H5VL__native_get_file_addr_len.exit, %23, %13, %6
  %.0 = phi i32 [ -1, %6 ], [ -1, %13 ], [ -1, %23 ], [ 0, %H5VL__native_get_file_addr_len.exit ]
  ret i32 %.0
}